target datalayout = "e-m:e-p270:32:32-p271:32:32-p272:64:64-i64:64-i128:128-f80:128-n8:16:32:64-S128"
target triple = "x86_64-pc-linux-gnu"

%struct.DdNode = type { i32, i32, ptr, %union.anon, i64 }
%union.anon = type { %struct.DdChildren }
%struct.DdChildren = type { ptr, ptr }
%struct.DdManager = type { %struct.DdNode, ptr, ptr, ptr, ptr, ptr, ptr, ptr, i32, i32, double, double, double, i32, i32, i32, i32, i32, i32, ptr, ptr, %struct.DdSubtable, i32, i32, i32, i32, i32, i32, i32, double, i32, i32, i32, ptr, i64, double, i32, ptr, ptr, ptr, ptr, ptr, ptr, ptr, i32, ptr, ptr, ptr, ptr, ptr, ptr, i32, i32, i32, double, i32, i32, i32, i32, double, double, i32, i32, i32, i32, i32, i32, i32, i32, i32, ptr, ptr, i32, i32, i32, i32, i32, i32, ptr, ptr, ptr, ptr, ptr, ptr, ptr, ptr, i32, i64, i64, i64, i32, i64, i64, double, double, double, double, double, double, i32, ptr, ptr, i64 }
%struct.DdSubtable = type { ptr, i32, i32, i32, i32, i32, i32, i32, i32, i32, i32, i32 }

; Function Attrs: nounwind uwtable
define ptr @cuddAddOrAbstractRecur(ptr noundef %0, ptr noundef %1, ptr noundef %2) #0 {
  %4 = alloca ptr, align 8
  %5 = alloca ptr, align 8
  %6 = alloca ptr, align 8
  %7 = alloca ptr, align 8
  %8 = alloca ptr, align 8
  %9 = alloca ptr, align 8
  %10 = alloca ptr, align 8
  %11 = alloca ptr, align 8
  %12 = alloca ptr, align 8
  %13 = alloca ptr, align 8
  %14 = alloca i32, align 4
  store ptr %0, ptr %5, align 8, !tbaa !3
  store ptr %1, ptr %6, align 8, !tbaa !8
  store ptr %2, ptr %7, align 8, !tbaa !8
  call void @llvm.lifetime.start.p0(i64 8, ptr %8) #4
  call void @llvm.lifetime.start.p0(i64 8, ptr %9) #4
  call void @llvm.lifetime.start.p0(i64 8, ptr %10) #4
  call void @llvm.lifetime.start.p0(i64 8, ptr %11) #4
  call void @llvm.lifetime.start.p0(i64 8, ptr %12) #4
  call void @llvm.lifetime.start.p0(i64 8, ptr %13) #4
  %15 = load ptr, ptr %5, align 8, !tbaa !3
  %16 = getelementptr inbounds nuw %struct.DdManager, ptr %15, i32 0, i32 1
  %17 = load ptr, ptr %16, align 8, !tbaa !31
  store ptr %17, ptr %13, align 8, !tbaa !8
  %18 = load ptr, ptr %6, align 8, !tbaa !8
  %19 = getelementptr inbounds nuw %struct.DdNode, ptr %18, i32 0, i32 0
  %20 = load i32, ptr %19, align 8, !tbaa !32
  %21 = icmp eq i32 %20, 2147483647
  br i1 %21, label %26, label %22

22:                                               ; preds = %3
  %23 = load ptr, ptr %7, align 8, !tbaa !8
  %24 = load ptr, ptr %13, align 8, !tbaa !8
  %25 = icmp eq ptr %23, %24
  br i1 %25, label %26, label %28

26:                                               ; preds = %22, %3
  %27 = load ptr, ptr %6, align 8, !tbaa !8
  store ptr %27, ptr %4, align 8
  store i32 1, ptr %14, align 4
  br label %259

28:                                               ; preds = %22
  %29 = load ptr, ptr %6, align 8, !tbaa !8
  %30 = getelementptr inbounds nuw %struct.DdNode, ptr %29, i32 0, i32 0
  %31 = load i32, ptr %30, align 8, !tbaa !32
  %32 = icmp eq i32 %31, 2147483647
  br i1 %32, label %33, label %37

33:                                               ; preds = %28
  %34 = load ptr, ptr %6, align 8, !tbaa !8
  %35 = getelementptr inbounds nuw %struct.DdNode, ptr %34, i32 0, i32 0
  %36 = load i32, ptr %35, align 8, !tbaa !32
  br label %47

37:                                               ; preds = %28
  %38 = load ptr, ptr %5, align 8, !tbaa !3
  %39 = getelementptr inbounds nuw %struct.DdManager, ptr %38, i32 0, i32 37
  %40 = load ptr, ptr %39, align 8, !tbaa !35
  %41 = load ptr, ptr %6, align 8, !tbaa !8
  %42 = getelementptr inbounds nuw %struct.DdNode, ptr %41, i32 0, i32 0
  %43 = load i32, ptr %42, align 8, !tbaa !32
  %44 = zext i32 %43 to i64
  %45 = getelementptr inbounds nuw i32, ptr %40, i64 %44
  %46 = load i32, ptr %45, align 4, !tbaa !36
  br label %47

47:                                               ; preds = %37, %33
  %48 = phi i32 [ %36, %33 ], [ %46, %37 ]
  %49 = load ptr, ptr %7, align 8, !tbaa !8
  %50 = getelementptr inbounds nuw %struct.DdNode, ptr %49, i32 0, i32 0
  %51 = load i32, ptr %50, align 8, !tbaa !32
  %52 = icmp eq i32 %51, 2147483647
  br i1 %52, label %53, label %57

53:                                               ; preds = %47
  %54 = load ptr, ptr %7, align 8, !tbaa !8
  %55 = getelementptr inbounds nuw %struct.DdNode, ptr %54, i32 0, i32 0
  %56 = load i32, ptr %55, align 8, !tbaa !32
  br label %67

57:                                               ; preds = %47
  %58 = load ptr, ptr %5, align 8, !tbaa !3
  %59 = getelementptr inbounds nuw %struct.DdManager, ptr %58, i32 0, i32 37
  %60 = load ptr, ptr %59, align 8, !tbaa !35
  %61 = load ptr, ptr %7, align 8, !tbaa !8
  %62 = getelementptr inbounds nuw %struct.DdNode, ptr %61, i32 0, i32 0
  %63 = load i32, ptr %62, align 8, !tbaa !32
  %64 = zext i32 %63 to i64
  %65 = getelementptr inbounds nuw i32, ptr %60, i64 %64
  %66 = load i32, ptr %65, align 4, !tbaa !36
  br label %67

67:                                               ; preds = %57, %53
  %68 = phi i32 [ %56, %53 ], [ %66, %57 ]
  %69 = icmp sgt i32 %48, %68
  br i1 %69, label %70, label %79

70:                                               ; preds = %67
  %71 = load ptr, ptr %5, align 8, !tbaa !3
  %72 = load ptr, ptr %6, align 8, !tbaa !8
  %73 = load ptr, ptr %7, align 8, !tbaa !8
  %74 = getelementptr inbounds nuw %struct.DdNode, ptr %73, i32 0, i32 3
  %75 = getelementptr inbounds nuw %struct.DdChildren, ptr %74, i32 0, i32 0
  %76 = load ptr, ptr %75, align 8, !tbaa !33
  %77 = call ptr @cuddAddOrAbstractRecur(ptr noundef %71, ptr noundef %72, ptr noundef %76)
  store ptr %77, ptr %10, align 8, !tbaa !8
  %78 = load ptr, ptr %10, align 8, !tbaa !8
  store ptr %78, ptr %4, align 8
  store i32 1, ptr %14, align 4
  br label %259

79:                                               ; preds = %67
  %80 = load ptr, ptr %5, align 8, !tbaa !3
  %81 = load ptr, ptr %6, align 8, !tbaa !8
  %82 = load ptr, ptr %7, align 8, !tbaa !8
  %83 = call ptr @cuddCacheLookup2(ptr noundef %80, ptr noundef @Cudd_addOrAbstract, ptr noundef %81, ptr noundef %82)
  store ptr %83, ptr %10, align 8, !tbaa !8
  %84 = icmp ne ptr %83, null
  br i1 %84, label %85, label %87

85:                                               ; preds = %79
  %86 = load ptr, ptr %10, align 8, !tbaa !8
  store ptr %86, ptr %4, align 8
  store i32 1, ptr %14, align 4
  br label %259

87:                                               ; preds = %79
  %88 = load ptr, ptr %6, align 8, !tbaa !8
  %89 = getelementptr inbounds nuw %struct.DdNode, ptr %88, i32 0, i32 3
  %90 = getelementptr inbounds nuw %struct.DdChildren, ptr %89, i32 0, i32 0
  %91 = load ptr, ptr %90, align 8, !tbaa !33
  store ptr %91, ptr %8, align 8, !tbaa !8
  %92 = load ptr, ptr %6, align 8, !tbaa !8
  %93 = getelementptr inbounds nuw %struct.DdNode, ptr %92, i32 0, i32 3
  %94 = getelementptr inbounds nuw %struct.DdChildren, ptr %93, i32 0, i32 1
  %95 = load ptr, ptr %94, align 8, !tbaa !33
  store ptr %95, ptr %9, align 8, !tbaa !8
  %96 = load ptr, ptr %6, align 8, !tbaa !8
  %97 = getelementptr inbounds nuw %struct.DdNode, ptr %96, i32 0, i32 0
  %98 = load i32, ptr %97, align 8, !tbaa !32
  %99 = load ptr, ptr %7, align 8, !tbaa !8
  %100 = getelementptr inbounds nuw %struct.DdNode, ptr %99, i32 0, i32 0
  %101 = load i32, ptr %100, align 8, !tbaa !32
  %102 = icmp eq i32 %98, %101
  br i1 %102, label %103, label %184

103:                                              ; preds = %87
  %104 = load ptr, ptr %5, align 8, !tbaa !3
  %105 = load ptr, ptr %8, align 8, !tbaa !8
  %106 = load ptr, ptr %7, align 8, !tbaa !8
  %107 = getelementptr inbounds nuw %struct.DdNode, ptr %106, i32 0, i32 3
  %108 = getelementptr inbounds nuw %struct.DdChildren, ptr %107, i32 0, i32 0
  %109 = load ptr, ptr %108, align 8, !tbaa !33
  %110 = call ptr @cuddAddOrAbstractRecur(ptr noundef %104, ptr noundef %105, ptr noundef %109)
  store ptr %110, ptr %11, align 8, !tbaa !8
  %111 = load ptr, ptr %11, align 8, !tbaa !8
  %112 = icmp eq ptr %111, null
  br i1 %112, label %113, label %114

113:                                              ; preds = %103
  store ptr null, ptr %4, align 8
  store i32 1, ptr %14, align 4
  br label %259

114:                                              ; preds = %103
  %115 = load ptr, ptr %11, align 8, !tbaa !8
  %116 = ptrtoint ptr %115 to i64
  %117 = and i64 %116, -2
  %118 = inttoptr i64 %117 to ptr
  %119 = getelementptr inbounds nuw %struct.DdNode, ptr %118, i32 0, i32 1
  %120 = load i32, ptr %119, align 4, !tbaa !10
  %121 = add i32 %120, 1
  store i32 %121, ptr %119, align 4, !tbaa !10
  %122 = load ptr, ptr %11, align 8, !tbaa !8
  %123 = load ptr, ptr %13, align 8, !tbaa !8
  %124 = icmp ne ptr %122, %123
  br i1 %124, label %125, label %169

125:                                              ; preds = %114
  %126 = load ptr, ptr %5, align 8, !tbaa !3
  %127 = load ptr, ptr %9, align 8, !tbaa !8
  %128 = load ptr, ptr %7, align 8, !tbaa !8
  %129 = getelementptr inbounds nuw %struct.DdNode, ptr %128, i32 0, i32 3
  %130 = getelementptr inbounds nuw %struct.DdChildren, ptr %129, i32 0, i32 0
  %131 = load ptr, ptr %130, align 8, !tbaa !33
  %132 = call ptr @cuddAddOrAbstractRecur(ptr noundef %126, ptr noundef %127, ptr noundef %131)
  store ptr %132, ptr %12, align 8, !tbaa !8
  %133 = load ptr, ptr %12, align 8, !tbaa !8
  %134 = icmp eq ptr %133, null
  br i1 %134, label %135, label %138

135:                                              ; preds = %125
  %136 = load ptr, ptr %5, align 8, !tbaa !3
  %137 = load ptr, ptr %11, align 8, !tbaa !8
  call void @Cudd_RecursiveDeref(ptr noundef %136, ptr noundef %137)
  store ptr null, ptr %4, align 8
  store i32 1, ptr %14, align 4
  br label %259

138:                                              ; preds = %125
  %139 = load ptr, ptr %12, align 8, !tbaa !8
  %140 = ptrtoint ptr %139 to i64
  %141 = and i64 %140, -2
  %142 = inttoptr i64 %141 to ptr
  %143 = getelementptr inbounds nuw %struct.DdNode, ptr %142, i32 0, i32 1
  %144 = load i32, ptr %143, align 4, !tbaa !10
  %145 = add i32 %144, 1
  store i32 %145, ptr %143, align 4, !tbaa !10
  %146 = load ptr, ptr %5, align 8, !tbaa !3
  %147 = load ptr, ptr %11, align 8, !tbaa !8
  %148 = load ptr, ptr %12, align 8, !tbaa !8
  %149 = call ptr @cuddAddApplyRecur(ptr noundef %146, ptr noundef @Cudd_addOr, ptr noundef %147, ptr noundef %148)
  store ptr %149, ptr %10, align 8, !tbaa !8
  %150 = load ptr, ptr %10, align 8, !tbaa !8
  %151 = icmp eq ptr %150, null
  br i1 %151, label %152, label %157

152:                                              ; preds = %138
  %153 = load ptr, ptr %5, align 8, !tbaa !3
  %154 = load ptr, ptr %11, align 8, !tbaa !8
  call void @Cudd_RecursiveDeref(ptr noundef %153, ptr noundef %154)
  %155 = load ptr, ptr %5, align 8, !tbaa !3
  %156 = load ptr, ptr %12, align 8, !tbaa !8
  call void @Cudd_RecursiveDeref(ptr noundef %155, ptr noundef %156)
  store ptr null, ptr %4, align 8
  store i32 1, ptr %14, align 4
  br label %259

157:                                              ; preds = %138
  %158 = load ptr, ptr %10, align 8, !tbaa !8
  %159 = ptrtoint ptr %158 to i64
  %160 = and i64 %159, -2
  %161 = inttoptr i64 %160 to ptr
  %162 = getelementptr inbounds nuw %struct.DdNode, ptr %161, i32 0, i32 1
  %163 = load i32, ptr %162, align 4, !tbaa !10
  %164 = add i32 %163, 1
  store i32 %164, ptr %162, align 4, !tbaa !10
  %165 = load ptr, ptr %5, align 8, !tbaa !3
  %166 = load ptr, ptr %11, align 8, !tbaa !8
  call void @Cudd_RecursiveDeref(ptr noundef %165, ptr noundef %166)
  %167 = load ptr, ptr %5, align 8, !tbaa !3
  %168 = load ptr, ptr %12, align 8, !tbaa !8
  call void @Cudd_RecursiveDeref(ptr noundef %167, ptr noundef %168)
  br label %171

169:                                              ; preds = %114
  %170 = load ptr, ptr %11, align 8, !tbaa !8
  store ptr %170, ptr %10, align 8, !tbaa !8
  br label %171

171:                                              ; preds = %169, %157
  %172 = load ptr, ptr %5, align 8, !tbaa !3
  %173 = load ptr, ptr %6, align 8, !tbaa !8
  %174 = load ptr, ptr %7, align 8, !tbaa !8
  %175 = load ptr, ptr %10, align 8, !tbaa !8
  call void @cuddCacheInsert2(ptr noundef %172, ptr noundef @Cudd_addOrAbstract, ptr noundef %173, ptr noundef %174, ptr noundef %175)
  %176 = load ptr, ptr %10, align 8, !tbaa !8
  %177 = ptrtoint ptr %176 to i64
  %178 = and i64 %177, -2
  %179 = inttoptr i64 %178 to ptr
  %180 = getelementptr inbounds nuw %struct.DdNode, ptr %179, i32 0, i32 1
  %181 = load i32, ptr %180, align 4, !tbaa !10
  %182 = add i32 %181, -1
  store i32 %182, ptr %180, align 4, !tbaa !10
  %183 = load ptr, ptr %10, align 8, !tbaa !8
  store ptr %183, ptr %4, align 8
  store i32 1, ptr %14, align 4
  br label %259

184:                                              ; preds = %87
  %185 = load ptr, ptr %5, align 8, !tbaa !3
  %186 = load ptr, ptr %8, align 8, !tbaa !8
  %187 = load ptr, ptr %7, align 8, !tbaa !8
  %188 = call ptr @cuddAddOrAbstractRecur(ptr noundef %185, ptr noundef %186, ptr noundef %187)
  store ptr %188, ptr %11, align 8, !tbaa !8
  %189 = load ptr, ptr %11, align 8, !tbaa !8
  %190 = icmp eq ptr %189, null
  br i1 %190, label %191, label %192

191:                                              ; preds = %184
  store ptr null, ptr %4, align 8
  store i32 1, ptr %14, align 4
  br label %259

192:                                              ; preds = %184
  %193 = load ptr, ptr %11, align 8, !tbaa !8
  %194 = ptrtoint ptr %193 to i64
  %195 = and i64 %194, -2
  %196 = inttoptr i64 %195 to ptr
  %197 = getelementptr inbounds nuw %struct.DdNode, ptr %196, i32 0, i32 1
  %198 = load i32, ptr %197, align 4, !tbaa !10
  %199 = add i32 %198, 1
  store i32 %199, ptr %197, align 4, !tbaa !10
  %200 = load ptr, ptr %5, align 8, !tbaa !3
  %201 = load ptr, ptr %9, align 8, !tbaa !8
  %202 = load ptr, ptr %7, align 8, !tbaa !8
  %203 = call ptr @cuddAddOrAbstractRecur(ptr noundef %200, ptr noundef %201, ptr noundef %202)
  store ptr %203, ptr %12, align 8, !tbaa !8
  %204 = load ptr, ptr %12, align 8, !tbaa !8
  %205 = icmp eq ptr %204, null
  br i1 %205, label %206, label %209

206:                                              ; preds = %192
  %207 = load ptr, ptr %5, align 8, !tbaa !3
  %208 = load ptr, ptr %11, align 8, !tbaa !8
  call void @Cudd_RecursiveDeref(ptr noundef %207, ptr noundef %208)
  store ptr null, ptr %4, align 8
  store i32 1, ptr %14, align 4
  br label %259

209:                                              ; preds = %192
  %210 = load ptr, ptr %12, align 8, !tbaa !8
  %211 = ptrtoint ptr %210 to i64
  %212 = and i64 %211, -2
  %213 = inttoptr i64 %212 to ptr
  %214 = getelementptr inbounds nuw %struct.DdNode, ptr %213, i32 0, i32 1
  %215 = load i32, ptr %214, align 4, !tbaa !10
  %216 = add i32 %215, 1
  store i32 %216, ptr %214, align 4, !tbaa !10
  %217 = load ptr, ptr %11, align 8, !tbaa !8
  %218 = load ptr, ptr %12, align 8, !tbaa !8
  %219 = icmp eq ptr %217, %218
  br i1 %219, label %220, label %222

220:                                              ; preds = %209
  %221 = load ptr, ptr %11, align 8, !tbaa !8
  br label %230

222:                                              ; preds = %209
  %223 = load ptr, ptr %5, align 8, !tbaa !3
  %224 = load ptr, ptr %6, align 8, !tbaa !8
  %225 = getelementptr inbounds nuw %struct.DdNode, ptr %224, i32 0, i32 0
  %226 = load i32, ptr %225, align 8, !tbaa !32
  %227 = load ptr, ptr %11, align 8, !tbaa !8
  %228 = load ptr, ptr %12, align 8, !tbaa !8
  %229 = call ptr @cuddUniqueInter(ptr noundef %223, i32 noundef %226, ptr noundef %227, ptr noundef %228)
  br label %230

230:                                              ; preds = %222, %220
  %231 = phi ptr [ %221, %220 ], [ %229, %222 ]
  store ptr %231, ptr %10, align 8, !tbaa !8
  %232 = load ptr, ptr %10, align 8, !tbaa !8
  %233 = icmp eq ptr %232, null
  br i1 %233, label %234, label %239

234:                                              ; preds = %230
  %235 = load ptr, ptr %5, align 8, !tbaa !3
  %236 = load ptr, ptr %11, align 8, !tbaa !8
  call void @Cudd_RecursiveDeref(ptr noundef %235, ptr noundef %236)
  %237 = load ptr, ptr %5, align 8, !tbaa !3
  %238 = load ptr, ptr %12, align 8, !tbaa !8
  call void @Cudd_RecursiveDeref(ptr noundef %237, ptr noundef %238)
  store ptr null, ptr %4, align 8
  store i32 1, ptr %14, align 4
  br label %259

239:                                              ; preds = %230
  %240 = load ptr, ptr %11, align 8, !tbaa !8
  %241 = ptrtoint ptr %240 to i64
  %242 = and i64 %241, -2
  %243 = inttoptr i64 %242 to ptr
  %244 = getelementptr inbounds nuw %struct.DdNode, ptr %243, i32 0, i32 1
  %245 = load i32, ptr %244, align 4, !tbaa !10
  %246 = add i32 %245, -1
  store i32 %246, ptr %244, align 4, !tbaa !10
  %247 = load ptr, ptr %12, align 8, !tbaa !8
  %248 = ptrtoint ptr %247 to i64
  %249 = and i64 %248, -2
  %250 = inttoptr i64 %249 to ptr
  %251 = getelementptr inbounds nuw %struct.DdNode, ptr %250, i32 0, i32 1
  %252 = load i32, ptr %251, align 4, !tbaa !10
  %253 = add i32 %252, -1
  store i32 %253, ptr %251, align 4, !tbaa !10
  %254 = load ptr, ptr %5, align 8, !tbaa !3
  %255 = load ptr, ptr %6, align 8, !tbaa !8
  %256 = load ptr, ptr %7, align 8, !tbaa !8
  %257 = load ptr, ptr %10, align 8, !tbaa !8
  call void @cuddCacheInsert2(ptr noundef %254, ptr noundef @Cudd_addOrAbstract, ptr noundef %255, ptr noundef %256, ptr noundef %257)
  %258 = load ptr, ptr %10, align 8, !tbaa !8
  store ptr %258, ptr %4, align 8
  store i32 1, ptr %14, align 4
  br label %259

259:                                              ; preds = %239, %234, %206, %191, %171, %152, %135, %113, %85, %70, %26
  call void @llvm.lifetime.end.p0(i64 8, ptr %13) #4
  call void @llvm.lifetime.end.p0(i64 8, ptr %12) #4
  call void @llvm.lifetime.end.p0(i64 8, ptr %11) #4
  call void @llvm.lifetime.end.p0(i64 8, ptr %10) #4
  call void @llvm.lifetime.end.p0(i64 8, ptr %9) #4
  call void @llvm.lifetime.end.p0(i64 8, ptr %8) #4
  %260 = load ptr, ptr %4, align 8
  ret ptr %260
}