; Function Attrs: nounwind uwtable
define ptr @cuddAddOrAbstractRecur(ptr noundef %0, ptr noundef %1, ptr noundef %2) local_unnamed_addr #0 {
  %4 = getelementptr inbounds nuw i8, ptr %0, i64 40
  %5 = load ptr, ptr %4, align 8, !tbaa !12
  %6 = load i32, ptr %1, align 8, !tbaa !26
  %.fr112 = freeze i32 %6
  %7 = icmp eq i32 %.fr112, 2147483647
  %8 = icmp eq ptr %2, %5
  %or.cond109 = select i1 %7, i1 true, i1 %8
  br i1 %or.cond109, label %.loopexit, label %.lr.ph.split.preheader

.lr.ph.split.preheader:                           ; preds = %3
  %9 = getelementptr inbounds nuw i8, ptr %0, i64 312
  %10 = zext i32 %.fr112 to i64
  br label %.lr.ph.split

.lr.ph.split:                                     ; preds = %.lr.ph.split.preheader, %tailrecurse
  %.tr106110 = phi ptr [ %22, %tailrecurse ], [ %2, %.lr.ph.split.preheader ]
  %11 = load i32, ptr %.tr106110, align 8, !tbaa !26
  %12 = icmp eq i32 %11, 2147483647
  br i1 %12, label %.thread, label %13

13:                                               ; preds = %.lr.ph.split
  %14 = load ptr, ptr %9, align 8, !tbaa !33
  %15 = getelementptr inbounds nuw i32, ptr %14, i64 %10
  %16 = load i32, ptr %15, align 4, !tbaa !34
  %17 = zext i32 %11 to i64
  %18 = getelementptr inbounds nuw i32, ptr %14, i64 %17
  %19 = load i32, ptr %18, align 4, !tbaa !34
  %20 = icmp sgt i32 %16, %19
  br i1 %20, label %tailrecurse, label %.thread

tailrecurse:                                      ; preds = %13
  %21 = getelementptr inbounds nuw i8, ptr %.tr106110, i64 16
  %22 = load ptr, ptr %21, align 8, !tbaa !27
  %23 = icmp eq ptr %22, %5
  br i1 %23, label %.loopexit, label %.lr.ph.split

.thread:                                          ; preds = %13, %.lr.ph.split
  %24 = tail call ptr @cuddCacheLookup2(ptr noundef nonnull %0, ptr noundef nonnull @Cudd_addOrAbstract, ptr noundef nonnull %1, ptr noundef nonnull %.tr106110) #3
  %.not = icmp eq ptr %24, null
  br i1 %.not, label %25, label %.loopexit

25:                                               ; preds = %.thread
  %26 = getelementptr inbounds nuw i8, ptr %1, i64 16
  %27 = load ptr, ptr %26, align 8, !tbaa !27
  %28 = getelementptr inbounds nuw i8, ptr %1, i64 24
  %29 = load ptr, ptr %28, align 8, !tbaa !27
  %30 = load i32, ptr %1, align 8, !tbaa !26
  %31 = load i32, ptr %.tr106110, align 8, !tbaa !26
  %32 = icmp eq i32 %30, %31
  br i1 %32, label %33, label %71

33:                                               ; preds = %25
  %34 = getelementptr inbounds nuw i8, ptr %.tr106110, i64 16
  %35 = load ptr, ptr %34, align 8, !tbaa !27
  %36 = tail call ptr @cuddAddOrAbstractRecur(ptr noundef nonnull %0, ptr noundef %27, ptr noundef %35)
  %37 = icmp eq ptr %36, null
  br i1 %37, label %.loopexit, label %38

38:                                               ; preds = %33
  %39 = ptrtoint ptr %36 to i64
  %40 = and i64 %39, -2
  %41 = inttoptr i64 %40 to ptr
  %42 = getelementptr inbounds nuw i8, ptr %41, i64 4
  %43 = load i32, ptr %42, align 4, !tbaa !8
  %44 = add i32 %43, 1
  store i32 %44, ptr %42, align 4, !tbaa !8
  %.not103 = icmp eq ptr %36, %5
  br i1 %.not103, label %67, label %45

45:                                               ; preds = %38
  %46 = load ptr, ptr %34, align 8, !tbaa !27
  %47 = tail call ptr @cuddAddOrAbstractRecur(ptr noundef nonnull %0, ptr noundef %29, ptr noundef %46)
  %48 = icmp eq ptr %47, null
  br i1 %48, label %49, label %50

49:                                               ; preds = %45
  tail call void @Cudd_RecursiveDeref(ptr noundef nonnull %0, ptr noundef nonnull %36) #3
  br label %.loopexit

50:                                               ; preds = %45
  %51 = ptrtoint ptr %47 to i64
  %52 = and i64 %51, -2
  %53 = inttoptr i64 %52 to ptr
  %54 = getelementptr inbounds nuw i8, ptr %53, i64 4
  %55 = load i32, ptr %54, align 4, !tbaa !8
  %56 = add i32 %55, 1
  store i32 %56, ptr %54, align 4, !tbaa !8
  %57 = tail call ptr @cuddAddApplyRecur(ptr noundef nonnull %0, ptr noundef nonnull @Cudd_addOr, ptr noundef nonnull %36, ptr noundef nonnull %47) #3
  %58 = icmp eq ptr %57, null
  br i1 %58, label %59, label %60

59:                                               ; preds = %50
  tail call void @Cudd_RecursiveDeref(ptr noundef nonnull %0, ptr noundef nonnull %36) #3
  tail call void @Cudd_RecursiveDeref(ptr noundef nonnull %0, ptr noundef nonnull %47) #3
  br label %.loopexit

60:                                               ; preds = %50
  %61 = ptrtoint ptr %57 to i64
  %62 = and i64 %61, -2
  %63 = inttoptr i64 %62 to ptr
  %64 = getelementptr inbounds nuw i8, ptr %63, i64 4
  %65 = load i32, ptr %64, align 4, !tbaa !8
  %66 = add i32 %65, 1
  store i32 %66, ptr %64, align 4, !tbaa !8
  tail call void @Cudd_RecursiveDeref(ptr noundef nonnull %0, ptr noundef nonnull %36) #3
  tail call void @Cudd_RecursiveDeref(ptr noundef nonnull %0, ptr noundef nonnull %47) #3
  br label %67

67:                                               ; preds = %38, %60
  %.pre-phi115 = phi ptr [ %41, %38 ], [ %63, %60 ]
  %.091 = phi ptr [ %36, %38 ], [ %57, %60 ]
  tail call void @cuddCacheInsert2(ptr noundef nonnull %0, ptr noundef nonnull @Cudd_addOrAbstract, ptr noundef nonnull %1, ptr noundef nonnull %.tr106110, ptr noundef nonnull %.091) #3
  %68 = getelementptr inbounds nuw i8, ptr %.pre-phi115, i64 4
  %69 = load i32, ptr %68, align 4, !tbaa !8
  %70 = add i32 %69, -1
  store i32 %70, ptr %68, align 4, !tbaa !8
  br label %.loopexit

71:                                               ; preds = %25
  %72 = tail call ptr @cuddAddOrAbstractRecur(ptr noundef nonnull %0, ptr noundef %27, ptr noundef nonnull %.tr106110)
  %73 = icmp eq ptr %72, null
  br i1 %73, label %.loopexit, label %74

74:                                               ; preds = %71
  %75 = ptrtoint ptr %72 to i64
  %76 = and i64 %75, -2
  %77 = inttoptr i64 %76 to ptr
  %78 = getelementptr inbounds nuw i8, ptr %77, i64 4
  %79 = load i32, ptr %78, align 4, !tbaa !8
  %80 = add i32 %79, 1
  store i32 %80, ptr %78, align 4, !tbaa !8
  %81 = tail call ptr @cuddAddOrAbstractRecur(ptr noundef nonnull %0, ptr noundef %29, ptr noundef nonnull %.tr106110)
  %82 = icmp eq ptr %81, null
  br i1 %82, label %83, label %84

83:                                               ; preds = %74
  tail call void @Cudd_RecursiveDeref(ptr noundef nonnull %0, ptr noundef nonnull %72) #3
  br label %.loopexit

84:                                               ; preds = %74
  %85 = ptrtoint ptr %81 to i64
  %86 = and i64 %85, -2
  %87 = inttoptr i64 %86 to ptr
  %88 = getelementptr inbounds nuw i8, ptr %87, i64 4
  %89 = load i32, ptr %88, align 4, !tbaa !8
  %90 = add i32 %89, 1
  store i32 %90, ptr %88, align 4, !tbaa !8
  %91 = icmp eq ptr %72, %81
  br i1 %91, label %.thread104, label %92

92:                                               ; preds = %84
  %93 = load i32, ptr %1, align 8, !tbaa !26
  %94 = tail call ptr @cuddUniqueInter(ptr noundef nonnull %0, i32 noundef %93, ptr noundef nonnull %72, ptr noundef nonnull %81) #3
  %95 = icmp eq ptr %94, null
  br i1 %95, label %96, label %.thread104

96:                                               ; preds = %92
  tail call void @Cudd_RecursiveDeref(ptr noundef nonnull %0, ptr noundef nonnull %72) #3
  tail call void @Cudd_RecursiveDeref(ptr noundef nonnull %0, ptr noundef nonnull %81) #3
  br label %.loopexit

.thread104:                                       ; preds = %84, %92
  %97 = phi ptr [ %94, %92 ], [ %72, %84 ]
  %98 = load i32, ptr %78, align 4, !tbaa !8
  %99 = add i32 %98, -1
  store i32 %99, ptr %78, align 4, !tbaa !8
  %100 = load i32, ptr %88, align 4, !tbaa !8
  %101 = add i32 %100, -1
  store i32 %101, ptr %88, align 4, !tbaa !8
  tail call void @cuddCacheInsert2(ptr noundef nonnull %0, ptr noundef nonnull @Cudd_addOrAbstract, ptr noundef nonnull %1, ptr noundef nonnull %.tr106110, ptr noundef nonnull %97) #3
  br label %.loopexit

.loopexit:                                        ; preds = %tailrecurse, %3, %71, %33, %.thread, %.thread104, %96, %83, %67, %59, %49
  %.0 = phi ptr [ null, %49 ], [ null, %59 ], [ %.091, %67 ], [ null, %83 ], [ null, %96 ], [ %97, %.thread104 ], [ %24, %.thread ], [ null, %33 ], [ null, %71 ], [ %1, %3 ], [ %1, %tailrecurse ]
  ret ptr %.0
}